Certificate:
    Data:
        Version: 3 (0x2)
        Serial Number:
            bb:79:38:6f:74:cd:1c:8b
    Signature Algorithm: sha256WithRSAEncryption
        Issuer: C=US, ST=TX, L=Spring, O=American Bureau of Shipping, CN=rabbitmq-local
        Validity
            Not Before: Aug 17 17:32:02 2023 GMT
            Not After : Jul 24 17:32:02 2123 GMT
        Subject: C=US, ST=TX, L=Spring, O=American Bureau of Shipping, CN=rabbitmq-local
        Subject Public Key Info:
            Public Key Algorithm: rsaEncryption
                Public-Key: (2048 bit)
                Modulus:
                    00:bd:5f:69:7c:1a:b6:c8:f1:9b:97:69:e9:2a:73:
                    aa:13:b5:d9:34:3f:04:63:44:ed:2a:c6:bf:a3:23:
                    c9:f9:a8:5c:f5:50:0f:91:84:2c:25:7d:0a:35:9d:
                    72:44:cc:08:7e:d0:ec:42:cf:a9:e8:ae:2f:d9:d7:
                    a1:b5:2d:07:c9:30:a5:26:79:52:92:fb:2c:61:8b:
                    b5:52:2c:1a:5d:04:b8:f6:f7:5f:50:b0:a5:11:3e:
                    e9:27:95:ca:0f:c4:53:11:ca:2b:ff:79:98:9c:07:
                    4c:7a:49:09:7f:9d:f3:1e:0a:08:ff:e4:f1:74:96:
                    99:fd:7b:07:f4:e4:fb:3e:13:2e:c2:3f:3a:44:23:
                    70:1b:8c:c1:4c:e4:57:b9:49:55:32:00:3b:a8:35:
                    4e:04:39:cb:6e:b8:7f:89:a9:33:72:b9:68:9b:82:
                    2c:f3:94:bb:15:da:9f:df:b3:df:38:19:5c:6f:10:
                    18:69:91:24:25:9f:f6:85:64:26:02:71:2f:98:e4:
                    f7:3e:2e:5c:71:85:2a:34:bd:33:3d:c6:b5:f9:79:
                    0e:e3:ea:9d:0b:67:6d:7d:7e:14:7b:55:b2:7a:bf:
                    66:ea:5c:27:84:28:4e:f5:fe:2b:fa:5e:e9:9d:5d:
                    9c:ff:7b:1f:3a:85:3b:9c:d2:96:0a:29:78:7d:74:
                    e6:23
                Exponent: 65537 (0x10001)
        X509v3 extensions:
            X509v3 Key Usage: 
                Digital Signature, Non Repudiation, Key Encipherment
            X509v3 Extended Key Usage: 
                TLS Web Server Authentication
            X509v3 Subject Alternative Name: 
                DNS:localhost, DNS:rabbitmq-local
    Signature Algorithm: sha256WithRSAEncryption
         b7:7f:3b:ae:f2:fe:60:61:0a:e0:5f:22:91:ce:f0:e8:f9:f4:
         ac:9f:dd:63:1b:aa:59:ff:fa:db:65:da:5e:a7:8e:b9:bf:0a:
         14:68:ca:b3:ae:f2:a3:20:6a:4e:aa:00:50:fa:12:cd:6f:91:
         4d:83:ab:79:91:6b:fd:88:e5:ef:70:af:ca:a0:a0:37:1f:99:
         da:46:ab:b9:c0:45:5a:de:7f:48:fa:23:e9:d1:8b:57:5a:47:
         7d:a1:a0:32:3d:0c:03:47:b6:1e:32:f9:43:a5:52:f4:37:7d:
         a5:c2:2b:a2:60:f5:ab:c4:c4:56:5d:07:3b:f4:38:c4:0a:3d:
         d5:be:5f:9c:21:0a:02:14:b7:67:26:4e:09:88:55:e1:9c:8e:
         ff:15:d2:1c:f5:f2:8d:03:a0:b1:f9:f3:5d:bf:39:ac:34:1f:
         08:92:e7:3f:36:59:0a:9f:95:af:40:c8:9a:0f:01:ba:4c:47:
         83:f6:0c:9e:00:d5:76:30:e5:19:b2:51:86:51:c6:4c:cb:ee:
         6d:50:39:db:0a:e3:57:38:09:0f:bc:2f:c2:70:50:cf:bb:0a:
         14:47:c4:a0:14:74:aa:bd:3b:b8:72:2b:30:22:b8:ac:20:27:
         46:00:b5:34:af:3c:c4:30:f1:34:f0:0d:ce:50:c1:49:ed:f7:
         ff:5a:3e:09
-----BEGIN CERTIFICATE-----
MIIDozCCAougAwIBAgIJALt5OG90zRyLMA0GCSqGSIb3DQEBCwUAMGoxCzAJBgNV
BAYTAlVTMQswCQYDVQQIDAJUWDEPMA0GA1UEBwwGU3ByaW5nMSQwIgYDVQQKDBtB
bWVyaWNhbiBCdXJlYXUgb2YgU2hpcHBpbmcxFzAVBgNVBAMMDnJhYmJpdG1xLWxv
Y2FsMCAXDTIzMDgxNzE3MzIwMloYDzIxMjMwNzI0MTczMjAyWjBqMQswCQYDVQQG
EwJVUzELMAkGA1UECAwCVFgxDzANBgNVBAcMBlNwcmluZzEkMCIGA1UECgwbQW1l
cmljYW4gQnVyZWF1IG9mIFNoaXBwaW5nMRcwFQYDVQQDDA5yYWJiaXRtcS1sb2Nh
bDCCASIwDQYJKoZIhvcNAQEBBQADggEPADCCAQoCggEBAL1faXwatsjxm5dp6Spz
qhO12TQ/BGNE7SrGv6MjyfmoXPVQD5GELCV9CjWdckTMCH7Q7ELPqeiuL9nXobUt
B8kwpSZ5UpL7LGGLtVIsGl0EuPb3X1CwpRE+6SeVyg/EUxHKK/95mJwHTHpJCX+d
8x4KCP/k8XSWmf17B/Tk+z4TLsI/OkQjcBuMwUzkV7lJVTIAO6g1TgQ5y264f4mp
M3K5aJuCLPOUuxXan9+z3zgZXG8QGGmRJCWf9oVkJgJxL5jk9z4uXHGFKjS9Mz3G
tfl5DuPqnQtnbX1+FHtVsnq/ZupcJ4QoTvX+K/pe6Z1dnP97HzqFO5zSlgopeH10
5iMCAwEAAaNKMEgwCwYDVR0PBAQDAgXgMBMGA1UdJQQMMAoGCCsGAQUFBwMBMCQG
A1UdEQQdMBuCCWxvY2FsaG9zdIIOcmFiYml0bXEtbG9jYWwwDQYJKoZIhvcNAQEL
BQADggEBALd/O67y/mBhCuBfIpHO8Oj59Kyf3WMbqln/+ttl2l6njrm/ChRoyrOu
8qMgak6qAFD6Es1vkU2Dq3mRa/2I5e9wr8qgoDcfmdpGq7nARVref0j6I+nRi1da
R32hoDI9DANHth4y+UOlUvQ3faXCK6Jg9avExFZdBzv0OMQKPdW+X5whCgIUt2cm
TgmIVeGcjv8V0hz18o0DoLH5812/Oaw0HwiS5z82WQqfla9AyJoPAbpMR4P2DJ4A
1XYw5RmyUYZRxkzL7m1QOdsK41c4CQ+8L8JwUM+7ChRHxKAUdKq9O7hyKzAiuKwg
J0YAtTSvPMQw8TTwDc5QwUnt9/9aPgk=
-----END CERTIFICATE-----
